; Function Attrs: nounwind uwtable
define internal range(i32 0, 2) i32 @ext_ticket_add_serverhello(ptr noundef readonly captures(none) %0, ptr noundef %1) #0 {
  %3 = getelementptr inbounds nuw i8, ptr %0, i64 296
  %4 = load i32, ptr %3, align 8, !tbaa !157
  %.not = icmp eq i32 %4, 0
  br i1 %.not, label %9, label %5

5:                                                ; preds = %2
  %6 = tail call i32 @CBB_add_u16(ptr noundef %1, i16 noundef zeroext 35) #21
  %.not3 = icmp eq i32 %6, 0
  br i1 %.not3, label %9, label %7

7:                                                ; preds = %5
  %8 = tail call i32 @CBB_add_u16(ptr noundef %1, i16 noundef zeroext 0) #21
  %.not4 = icmp ne i32 %8, 0
  %spec.select = zext i1 %.not4 to i32
  br label %9

9:                                                ; preds = %7, %5, %2
  %.0 = phi i32 [ 1, %2 ], [ 0, %5 ], [ %spec.select, %7 ]
  ret i32 %.0
}